target datalayout = "e-m:e-p270:32:32-p271:32:32-p272:64:64-i64:64-i128:128-f80:128-n8:16:32:64-S128"
target triple = "x86_64-pc-linux-gnu"

%"class.std::__cxx11::basic_string" = type { %"struct.std::__cxx11::basic_string<char>::_Alloc_hider", i64, %union.anon }
%"struct.std::__cxx11::basic_string<char>::_Alloc_hider" = type { ptr }
%union.anon = type { i64, [8 x i8] }
%"class.std::allocator" = type { i8 }

@.str = private unnamed_addr constant [22 x i8] c"rc + gc + bc <= unity\00", align 1
@__func__._ZN2cv4gapi5fluid12cpu_baseline17run_rgb2gray_implEPhPKhifff = private unnamed_addr constant [18 x i8] c"run_rgb2gray_impl\00", align 1
@.str.1 = private unnamed_addr constant [151 x i8] c"generated/home/dtcxzyw/WorkSpace/Projects/compilers/llvm-opt-benchmark/bench/opencv/opencv/modules/gapi/src/backends/fluid/gfluidimgproc_func.simd.hpp\00", align 1
@.str.2 = private unnamed_addr constant [26 x i8] c"rc + gc + bc >= USHRT_MAX\00", align 1

; Function Attrs: mustprogress uwtable
define hidden void @_ZN2cv4gapi5fluid12cpu_baseline17run_rgb2gray_implEPhPKhifff(ptr noundef %0, ptr noundef %1, i32 noundef %2, float noundef %3, float noundef %4, float noundef %5) #0 personality ptr @__gxx_personality_v0 {
  %7 = alloca ptr, align 8
  %8 = alloca ptr, align 8
  %9 = alloca i32, align 4
  %10 = alloca float, align 4
  %11 = alloca float, align 4
  %12 = alloca float, align 4
  %13 = alloca i32, align 4
  %14 = alloca i16, align 2
  %15 = alloca i16, align 2
  %16 = alloca i16, align 2
  %17 = alloca %"class.std::__cxx11::basic_string", align 8
  %18 = alloca %"class.std::allocator", align 1
  %19 = alloca ptr, align 8
  %20 = alloca i32, align 4
  %21 = alloca %"class.std::__cxx11::basic_string", align 8
  %22 = alloca %"class.std::allocator", align 1
  %23 = alloca i32, align 4
  %24 = alloca i8, align 1
  %25 = alloca i8, align 1
  %26 = alloca i8, align 1
  %27 = alloca i16, align 2
  store ptr %0, ptr %7, align 8
  store ptr %1, ptr %8, align 8
  store i32 %2, ptr %9, align 4
  store float %3, ptr %10, align 4
  store float %4, ptr %11, align 4
  store float %5, ptr %12, align 4
  store i32 65536, ptr %13, align 4
  %28 = load float, ptr %10, align 4
  %29 = call float @llvm.fmuladd.f32(float %28, float 6.553600e+04, float 5.000000e-01)
  %30 = fptoui float %29 to i16
  store i16 %30, ptr %14, align 2
  %31 = load float, ptr %11, align 4
  %32 = call float @llvm.fmuladd.f32(float %31, float 6.553600e+04, float 5.000000e-01)
  %33 = fptoui float %32 to i16
  store i16 %33, ptr %15, align 2
  %34 = load float, ptr %12, align 4
  %35 = call float @llvm.fmuladd.f32(float %34, float 6.553600e+04, float 5.000000e-01)
  %36 = fptoui float %35 to i16
  store i16 %36, ptr %16, align 2
  br label %37

37:                                               ; preds = %6
  %38 = load i16, ptr %14, align 2
  %39 = zext i16 %38 to i32
  %40 = load i16, ptr %15, align 2
  %41 = zext i16 %40 to i32
  %42 = add nsw i32 %39, %41
  %43 = load i16, ptr %16, align 2
  %44 = zext i16 %43 to i32
  %45 = add nsw i32 %42, %44
  %46 = icmp sle i32 %45, 65536
  br i1 %46, label %47, label %48

47:                                               ; preds = %37
  br label %60

48:                                               ; preds = %37
  call void @_ZNSaIcEC1Ev(ptr noundef nonnull align 1 dereferenceable(1) %18) #8
  invoke void @_ZNSt7__cxx1112basic_stringIcSt11char_traitsIcESaIcEEC1EPKcRKS3_(ptr noundef nonnull align 8 dereferenceable(32) %17, ptr noundef @.str, ptr noundef nonnull align 1 dereferenceable(1) %18)
          to label %49 unwind label %51

49:                                               ; preds = %48
  invoke void @_ZN2cv5errorEiRKNSt7__cxx1112basic_stringIcSt11char_traitsIcESaIcEEEPKcS9_i(i32 noundef -215, ptr noundef nonnull align 8 dereferenceable(32) %17, ptr noundef @__func__._ZN2cv4gapi5fluid12cpu_baseline17run_rgb2gray_implEPhPKhifff, ptr noundef @.str.1, i32 noundef 228) #9
          to label %50 unwind label %55

50:                                               ; preds = %49
  unreachable

51:                                               ; preds = %48
  %52 = landingpad { ptr, i32 }
          cleanup
  %53 = extractvalue { ptr, i32 } %52, 0
  store ptr %53, ptr %19, align 8
  %54 = extractvalue { ptr, i32 } %52, 1
  store i32 %54, ptr %20, align 4
  br label %59

55:                                               ; preds = %49
  %56 = landingpad { ptr, i32 }
          cleanup
  %57 = extractvalue { ptr, i32 } %56, 0
  store ptr %57, ptr %19, align 8
  %58 = extractvalue { ptr, i32 } %56, 1
  store i32 %58, ptr %20, align 4
  call void @_ZNSt7__cxx1112basic_stringIcSt11char_traitsIcESaIcEED1Ev(ptr noundef nonnull align 8 dereferenceable(32) %17) #8
  br label %59

59:                                               ; preds = %55, %51
  call void @_ZNSaIcED1Ev(ptr noundef nonnull align 1 dereferenceable(1) %18) #8
  br label %142

60:                                               ; preds = %47
  br label %61

61:                                               ; preds = %60
  br label %62

62:                                               ; preds = %61
  %63 = load i16, ptr %14, align 2
  %64 = zext i16 %63 to i32
  %65 = load i16, ptr %15, align 2
  %66 = zext i16 %65 to i32
  %67 = add nsw i32 %64, %66
  %68 = load i16, ptr %16, align 2
  %69 = zext i16 %68 to i32
  %70 = add nsw i32 %67, %69
  %71 = icmp sge i32 %70, 65535
  br i1 %71, label %72, label %73

72:                                               ; preds = %62
  br label %85

73:                                               ; preds = %62
  call void @_ZNSaIcEC1Ev(ptr noundef nonnull align 1 dereferenceable(1) %22) #8
  invoke void @_ZNSt7__cxx1112basic_stringIcSt11char_traitsIcESaIcEEC1EPKcRKS3_(ptr noundef nonnull align 8 dereferenceable(32) %21, ptr noundef @.str.2, ptr noundef nonnull align 1 dereferenceable(1) %22)
          to label %74 unwind label %76

74:                                               ; preds = %73
  invoke void @_ZN2cv5errorEiRKNSt7__cxx1112basic_stringIcSt11char_traitsIcESaIcEEEPKcS9_i(i32 noundef -215, ptr noundef nonnull align 8 dereferenceable(32) %21, ptr noundef @__func__._ZN2cv4gapi5fluid12cpu_baseline17run_rgb2gray_implEPhPKhifff, ptr noundef @.str.1, i32 noundef 229) #9
          to label %75 unwind label %80

75:                                               ; preds = %74
  unreachable

76:                                               ; preds = %73
  %77 = landingpad { ptr, i32 }
          cleanup
  %78 = extractvalue { ptr, i32 } %77, 0
  store ptr %78, ptr %19, align 8
  %79 = extractvalue { ptr, i32 } %77, 1
  store i32 %79, ptr %20, align 4
  br label %84

80:                                               ; preds = %74
  %81 = landingpad { ptr, i32 }
          cleanup
  %82 = extractvalue { ptr, i32 } %81, 0
  store ptr %82, ptr %19, align 8
  %83 = extractvalue { ptr, i32 } %81, 1
  store i32 %83, ptr %20, align 4
  call void @_ZNSt7__cxx1112basic_stringIcSt11char_traitsIcESaIcEED1Ev(ptr noundef nonnull align 8 dereferenceable(32) %21) #8
  br label %84

84:                                               ; preds = %80, %76
  call void @_ZNSaIcED1Ev(ptr noundef nonnull align 1 dereferenceable(1) %22) #8
  br label %142

85:                                               ; preds = %72
  br label %86

86:                                               ; preds = %85
  store i32 0, ptr %23, align 4
  br label %87

87:                                               ; preds = %138, %86
  %88 = load i32, ptr %23, align 4
  %89 = load i32, ptr %9, align 4
  %90 = icmp slt i32 %88, %89
  br i1 %90, label %91, label %141

91:                                               ; preds = %87
  %92 = load ptr, ptr %8, align 8
  %93 = load i32, ptr %23, align 4
  %94 = mul nsw i32 3, %93
  %95 = sext i32 %94 to i64
  %96 = getelementptr inbounds i8, ptr %92, i64 %95
  %97 = load i8, ptr %96, align 1
  store i8 %97, ptr %24, align 1
  %98 = load ptr, ptr %8, align 8
  %99 = load i32, ptr %23, align 4
  %100 = mul nsw i32 3, %99
  %101 = add nsw i32 %100, 1
  %102 = sext i32 %101 to i64
  %103 = getelementptr inbounds i8, ptr %98, i64 %102
  %104 = load i8, ptr %103, align 1
  store i8 %104, ptr %25, align 1
  %105 = load ptr, ptr %8, align 8
  %106 = load i32, ptr %23, align 4
  %107 = mul nsw i32 3, %106
  %108 = add nsw i32 %107, 2
  %109 = sext i32 %108 to i64
  %110 = getelementptr inbounds i8, ptr %105, i64 %109
  %111 = load i8, ptr %110, align 1
  store i8 %111, ptr %26, align 1
  %112 = load i8, ptr %24, align 1
  %113 = zext i8 %112 to i32
  %114 = load i16, ptr %14, align 2
  %115 = zext i16 %114 to i32
  %116 = mul nsw i32 %113, %115
  %117 = load i8, ptr %26, align 1
  %118 = zext i8 %117 to i32
  %119 = load i16, ptr %16, align 2
  %120 = zext i16 %119 to i32
  %121 = mul nsw i32 %118, %120
  %122 = add nsw i32 %116, %121
  %123 = load i8, ptr %25, align 1
  %124 = zext i8 %123 to i32
  %125 = load i16, ptr %15, align 2
  %126 = zext i16 %125 to i32
  %127 = mul nsw i32 %124, %126
  %128 = add nsw i32 %122, %127
  %129 = add nsw i32 %128, 32768
  %130 = ashr i32 %129, 16
  %131 = trunc i32 %130 to i16
  store i16 %131, ptr %27, align 2
  %132 = load i16, ptr %27, align 2
  %133 = trunc i16 %132 to i8
  %134 = load ptr, ptr %7, align 8
  %135 = load i32, ptr %23, align 4
  %136 = sext i32 %135 to i64
  %137 = getelementptr inbounds i8, ptr %134, i64 %136
  store i8 %133, ptr %137, align 1
  br label %138

138:                                              ; preds = %91
  %139 = load i32, ptr %23, align 4
  %140 = add nsw i32 %139, 1
  store i32 %140, ptr %23, align 4
  br label %87, !llvm.loop !4

141:                                              ; preds = %87
  ret void

142:                                              ; preds = %84, %59
  %143 = load ptr, ptr %19, align 8
  %144 = load i32, ptr %20, align 4
  %145 = insertvalue { ptr, i32 } poison, ptr %143, 0
  %146 = insertvalue { ptr, i32 } %145, i32 %144, 1
  resume { ptr, i32 } %146
}