; Function Attrs: mustprogress uwtable
define hidden void @_ZN2cv4gapi5fluid12cpu_baseline17run_rgb2gray_implEPhPKhifff(ptr nocapture noundef writeonly %0, ptr nocapture noundef readonly %1, i32 noundef %2, float noundef %3, float noundef %4, float noundef %5) local_unnamed_addr #0 personality ptr @__gxx_personality_v0 {
  %7 = alloca %"class.std::__cxx11::basic_string", align 8
  %8 = alloca %"class.std::allocator", align 1
  %9 = alloca %"class.std::__cxx11::basic_string", align 8
  %10 = alloca %"class.std::allocator", align 1
  %11 = insertelement <2 x float> poison, float %4, i64 0
  %12 = insertelement <2 x float> %11, float %3, i64 1
  %13 = tail call <2 x float> @llvm.fmuladd.v2f32(<2 x float> %12, <2 x float> <float 6.553600e+04, float 6.553600e+04>, <2 x float> <float 5.000000e-01, float 5.000000e-01>)
  %14 = tail call float @llvm.fmuladd.f32(float %5, float 6.553600e+04, float 5.000000e-01)
  %15 = fptoui float %14 to i16
  %16 = fptoui <2 x float> %13 to <2 x i16>
  %17 = extractelement <2 x i16> %16, i64 0
  %18 = zext i16 %17 to i32
  %19 = extractelement <2 x i16> %16, i64 1
  %20 = zext i16 %19 to i32
  %21 = add nuw nsw i32 %18, %20
  %22 = zext i16 %15 to i32
  %23 = add nuw nsw i32 %21, %22
  %24 = icmp ult i32 %23, 65537
  br i1 %24, label %32, label %25

25:                                               ; preds = %6
  call void @_ZNSaIcEC1Ev(ptr noundef nonnull align 1 dereferenceable(1) %8) #14
  invoke void @_ZNSt7__cxx1112basic_stringIcSt11char_traitsIcESaIcEEC1EPKcRKS3_(ptr noundef nonnull align 8 dereferenceable(32) %7, ptr noundef nonnull @.str, ptr noundef nonnull align 1 dereferenceable(1) %8)
          to label %26 unwind label %28

26:                                               ; preds = %25
  invoke void @_ZN2cv5errorEiRKNSt7__cxx1112basic_stringIcSt11char_traitsIcESaIcEEEPKcS9_i(i32 noundef -215, ptr noundef nonnull align 8 dereferenceable(32) %7, ptr noundef nonnull @__func__._ZN2cv4gapi5fluid12cpu_baseline17run_rgb2gray_implEPhPKhifff, ptr noundef nonnull @.str.1, i32 noundef 228) #15
          to label %27 unwind label %30

27:                                               ; preds = %26
  unreachable

28:                                               ; preds = %25
  %29 = landingpad { ptr, i32 }
          cleanup
  br label %63

30:                                               ; preds = %26
  %31 = landingpad { ptr, i32 }
          cleanup
  call void @_ZNSt7__cxx1112basic_stringIcSt11char_traitsIcESaIcEED1Ev(ptr noundef nonnull align 8 dereferenceable(32) %7) #14
  br label %63

32:                                               ; preds = %6
  %33 = icmp ugt i32 %23, 65534
  br i1 %33, label %.preheader, label %37

.preheader:                                       ; preds = %32
  %34 = icmp sgt i32 %2, 0
  br i1 %34, label %.lr.ph.preheader, label %._crit_edge

.lr.ph.preheader:                                 ; preds = %.preheader
  %wide.trip.count = zext nneg i32 %2 to i64
  %35 = zext i16 %19 to i32
  %36 = zext i16 %17 to i32
  br label %.lr.ph

37:                                               ; preds = %32
  call void @_ZNSaIcEC1Ev(ptr noundef nonnull align 1 dereferenceable(1) %10) #14
  invoke void @_ZNSt7__cxx1112basic_stringIcSt11char_traitsIcESaIcEEC1EPKcRKS3_(ptr noundef nonnull align 8 dereferenceable(32) %9, ptr noundef nonnull @.str.2, ptr noundef nonnull align 1 dereferenceable(1) %10)
          to label %38 unwind label %40

38:                                               ; preds = %37
  invoke void @_ZN2cv5errorEiRKNSt7__cxx1112basic_stringIcSt11char_traitsIcESaIcEEEPKcS9_i(i32 noundef -215, ptr noundef nonnull align 8 dereferenceable(32) %9, ptr noundef nonnull @__func__._ZN2cv4gapi5fluid12cpu_baseline17run_rgb2gray_implEPhPKhifff, ptr noundef nonnull @.str.1, i32 noundef 229) #15
          to label %39 unwind label %42

39:                                               ; preds = %38
  unreachable

40:                                               ; preds = %37
  %41 = landingpad { ptr, i32 }
          cleanup
  br label %63

42:                                               ; preds = %38
  %43 = landingpad { ptr, i32 }
          cleanup
  call void @_ZNSt7__cxx1112basic_stringIcSt11char_traitsIcESaIcEED1Ev(ptr noundef nonnull align 8 dereferenceable(32) %9) #14
  br label %63

.lr.ph:                                           ; preds = %.lr.ph.preheader, %.lr.ph
  %indvars.iv = phi i64 [ 0, %.lr.ph.preheader ], [ %indvars.iv.next, %.lr.ph ]
  %44 = mul nuw nsw i64 %indvars.iv, 3
  %45 = getelementptr inbounds i8, ptr %1, i64 %44
  %46 = load i8, ptr %45, align 1
  %47 = getelementptr inbounds i8, ptr %45, i64 1
  %48 = load i8, ptr %47, align 1
  %49 = getelementptr inbounds i8, ptr %45, i64 2
  %50 = load i8, ptr %49, align 1
  %51 = zext i8 %46 to i32
  %52 = mul nuw nsw i32 %51, %35
  %53 = zext i8 %50 to i32
  %54 = mul nuw nsw i32 %53, %22
  %55 = zext i8 %48 to i32
  %56 = mul nuw nsw i32 %55, %36
  %57 = add nuw nsw i32 %52, 32768
  %58 = add nuw nsw i32 %57, %56
  %59 = add nuw nsw i32 %58, %54
  %60 = lshr i32 %59, 16
  %61 = trunc i32 %60 to i8
  %62 = getelementptr inbounds i8, ptr %0, i64 %indvars.iv
  store i8 %61, ptr %62, align 1
  %indvars.iv.next = add nuw nsw i64 %indvars.iv, 1
  %exitcond.not = icmp eq i64 %indvars.iv.next, %wide.trip.count
  br i1 %exitcond.not, label %._crit_edge, label %.lr.ph, !llvm.loop !4

._crit_edge:                                      ; preds = %.lr.ph, %.preheader
  ret void

63:                                               ; preds = %40, %42, %28, %30
  %.sink = phi ptr [ %8, %30 ], [ %8, %28 ], [ %10, %42 ], [ %10, %40 ]
  %.pn34.pn = phi { ptr, i32 } [ %31, %30 ], [ %29, %28 ], [ %43, %42 ], [ %41, %40 ]
  call void @_ZNSaIcED1Ev(ptr noundef nonnull align 1 dereferenceable(1) %.sink) #14
  resume { ptr, i32 } %.pn34.pn
}